; Function Attrs: mustprogress uwtable
define hidden noundef ptr @assimp_stbi_load_16(ptr nocapture noundef readonly %filename, ptr nocapture noundef %x, ptr nocapture noundef %y, ptr noundef %comp, i32 noundef %req_comp) local_unnamed_addr #3 {
entry:
  %s.i = alloca %struct.stbi__context, align 8
  %call.i = tail call noalias noundef ptr @fopen(ptr noundef %filename, ptr noundef nonnull @.str.3)
  %tobool.not = icmp eq ptr %call.i, null
  br i1 %tobool.not, label %if.then, label %if.end

if.then:                                          ; preds = %entry
  %0 = tail call align 8 ptr @llvm.threadlocal.address.p0(ptr align 8 @_ZL22stbi__g_failure_reason)
  store ptr @.str.4, ptr %0, align 8
  br label %return

if.end:                                           ; preds = %entry
  call void @llvm.lifetime.start.p0(i64 224, ptr nonnull %s.i)
  %io.i.i.i = getelementptr inbounds i8, ptr %s.i, i64 16
  call void @llvm.memcpy.p0.p0.i64(ptr noundef nonnull align 8 dereferenceable(24) %io.i.i.i, ptr noundef nonnull align 8 dereferenceable(24) @_ZL21stbi__stdio_callbacks, i64 24, i1 false)
  %io_user_data.i.i.i = getelementptr inbounds i8, ptr %s.i, i64 40
  store ptr %call.i, ptr %io_user_data.i.i.i, align 8
  %buflen.i.i.i = getelementptr inbounds i8, ptr %s.i, i64 52
  store i32 128, ptr %buflen.i.i.i, align 4
  %read_from_callbacks.i.i.i = getelementptr inbounds i8, ptr %s.i, i64 48
  store i32 1, ptr %read_from_callbacks.i.i.i, align 8
  %callback_already_read.i.i.i = getelementptr inbounds i8, ptr %s.i, i64 184
  store i32 0, ptr %callback_already_read.i.i.i, align 8
  %buffer_start.i.i.i = getelementptr inbounds i8, ptr %s.i, i64 56
  %img_buffer_original.i.i.i = getelementptr inbounds i8, ptr %s.i, i64 208
  store ptr %buffer_start.i.i.i, ptr %img_buffer_original.i.i.i, align 8
  %img_buffer.i.i.i = getelementptr inbounds i8, ptr %s.i, i64 192
  store ptr %buffer_start.i.i.i, ptr %img_buffer.i.i.i, align 8
  %1 = load ptr, ptr %io.i.i.i, align 8
  %call.i.i.i.i = call noundef i32 %1(ptr noundef nonnull %call.i, ptr noundef nonnull %buffer_start.i.i.i, i32 noundef 128)
  %2 = load ptr, ptr %img_buffer.i.i.i, align 8
  %3 = load ptr, ptr %img_buffer_original.i.i.i, align 8
  %sub.ptr.lhs.cast.i.i.i.i = ptrtoint ptr %2 to i64
  %sub.ptr.rhs.cast.i.i.i.i = ptrtoint ptr %3 to i64
  %sub.ptr.sub.i.i.i.i = sub i64 %sub.ptr.lhs.cast.i.i.i.i, %sub.ptr.rhs.cast.i.i.i.i
  %conv.i.i.i.i = trunc i64 %sub.ptr.sub.i.i.i.i to i32
  %4 = load i32, ptr %callback_already_read.i.i.i, align 8
  %add.i.i.i.i = add nsw i32 %4, %conv.i.i.i.i
  store i32 %add.i.i.i.i, ptr %callback_already_read.i.i.i, align 8
  %cmp.i.i.i.i = icmp eq i32 %call.i.i.i.i, 0
  br i1 %cmp.i.i.i.i, label %if.then.i.i.i.i, label %if.else.i.i.i.i

if.then.i.i.i.i:                                  ; preds = %if.end
  store i32 0, ptr %read_from_callbacks.i.i.i, align 8
  %add.ptr.i.i.i.i = getelementptr inbounds i8, ptr %s.i, i64 57
  store i8 0, ptr %buffer_start.i.i.i, align 8
  br label %_ZL16stbi__start_fileP13stbi__contextP8_IO_FILE.exit.i

if.else.i.i.i.i:                                  ; preds = %if.end
  %idx.ext.i.i.i.i = sext i32 %call.i.i.i.i to i64
  %add.ptr12.i.i.i.i = getelementptr inbounds i8, ptr %buffer_start.i.i.i, i64 %idx.ext.i.i.i.i
  br label %_ZL16stbi__start_fileP13stbi__contextP8_IO_FILE.exit.i

_ZL16stbi__start_fileP13stbi__contextP8_IO_FILE.exit.i: ; preds = %if.else.i.i.i.i, %if.then.i.i.i.i
  %add.ptr12.sink.i.i.i.i = phi ptr [ %add.ptr.i.i.i.i, %if.then.i.i.i.i ], [ %add.ptr12.i.i.i.i, %if.else.i.i.i.i ]
  store ptr %buffer_start.i.i.i, ptr %img_buffer.i.i.i, align 8
  %5 = getelementptr inbounds i8, ptr %s.i, i64 200
  store ptr %add.ptr12.sink.i.i.i.i, ptr %5, align 8
  %img_buffer_original_end.i.i.i = getelementptr inbounds i8, ptr %s.i, i64 216
  store ptr %add.ptr12.sink.i.i.i.i, ptr %img_buffer_original_end.i.i.i, align 8
  %call.i3 = call fastcc noundef ptr @_ZL32stbi__load_and_postprocess_16bitP13stbi__contextPiS1_S1_i(ptr noundef nonnull %s.i, ptr noundef %x, ptr noundef %y, ptr noundef %comp, i32 noundef %req_comp)
  %tobool.not.i = icmp eq ptr %call.i3, null
  br i1 %tobool.not.i, label %assimp_stbi_load_from_file_16.exit, label %if.then.i

if.then.i:                                        ; preds = %_ZL16stbi__start_fileP13stbi__contextP8_IO_FILE.exit.i
  %6 = load ptr, ptr %5, align 8
  %7 = load ptr, ptr %img_buffer.i.i.i, align 8
  %sub.ptr.lhs.cast.i = ptrtoint ptr %6 to i64
  %sub.ptr.rhs.cast.i = ptrtoint ptr %7 to i64
  %sub.ptr.sub.neg.i = sub i64 %sub.ptr.rhs.cast.i, %sub.ptr.lhs.cast.i
  %sext.i = shl i64 %sub.ptr.sub.neg.i, 32
  %conv1.i = ashr exact i64 %sext.i, 32
  %call2.i = call i32 @fseek(ptr noundef nonnull %call.i, i64 noundef %conv1.i, i32 noundef 1)
  br label %assimp_stbi_load_from_file_16.exit

assimp_stbi_load_from_file_16.exit:               ; preds = %_ZL16stbi__start_fileP13stbi__contextP8_IO_FILE.exit.i, %if.then.i
  call void @llvm.lifetime.end.p0(i64 224, ptr nonnull %s.i)
  %call4 = call i32 @fclose(ptr noundef nonnull %call.i)
  br label %return

return:                                           ; preds = %assimp_stbi_load_from_file_16.exit, %if.then
  %retval.0 = phi ptr [ %call.i3, %assimp_stbi_load_from_file_16.exit ], [ null, %if.then ]
  ret ptr %retval.0
}